; Function Attrs: mustprogress uwtable
define void @_ZN11LayerDialog9resetAnimEv(ptr nocapture noundef nonnull align 8 dereferenceable(256) %0) local_unnamed_addr #9 align 2 personality ptr @__gxx_personality_v0 {
  %2 = alloca %class.QString, align 8
  tail call void @_ZN11LayerDialog9pauseAnimEv(ptr noundef nonnull align 8 dereferenceable(256) %0)
  %3 = getelementptr inbounds i8, ptr %0, i64 176
  %4 = load ptr, ptr %3, align 8
  %5 = getelementptr inbounds i8, ptr %0, i64 184
  %6 = load ptr, ptr %5, align 8
  %.not.i.i = icmp eq ptr %6, %4
  br i1 %.not.i.i, label %_ZNSt6vectorIiSaIiEE5clearEv.exit, label %7

7:                                                ; preds = %1
  store ptr %4, ptr %5, align 8
  br label %_ZNSt6vectorIiSaIiEE5clearEv.exit

_ZNSt6vectorIiSaIiEE5clearEv.exit:                ; preds = %1, %7
  %8 = getelementptr inbounds i8, ptr %0, i64 48
  %9 = load ptr, ptr %8, align 8
  %10 = getelementptr inbounds i8, ptr %9, i64 88
  %11 = load ptr, ptr %10, align 8
  tail call void @_ZN7QWidget10setEnabledEb(ptr noundef nonnull align 8 dereferenceable(48) %11, i1 noundef zeroext false)
  %12 = load ptr, ptr %8, align 8
  %13 = getelementptr inbounds i8, ptr %12, i64 104
  %14 = load ptr, ptr %13, align 8
  tail call void @_ZN7QWidget10setEnabledEb(ptr noundef nonnull align 8 dereferenceable(48) %14, i1 noundef zeroext false)
  %15 = load ptr, ptr %8, align 8
  %16 = getelementptr inbounds i8, ptr %15, i64 96
  %17 = load ptr, ptr %16, align 8
  call void @_ZNK11QMetaObject2trEPKcS1_i(ptr dead_on_unwind nonnull writable sret(%class.QString) align 8 %2, ptr noundef nonnull align 8 dereferenceable(48) @_ZN11LayerDialog16staticMetaObjectE, ptr noundef nonnull @.str.129, ptr noundef null, i32 noundef -1)
  invoke void @_ZN7QWidget10setToolTipERK7QString(ptr noundef nonnull align 8 dereferenceable(48) %17, ptr noundef nonnull align 8 dereferenceable(8) %2)
          to label %18 unwind label %23

18:                                               ; preds = %_ZNSt6vectorIiSaIiEE5clearEv.exit
  %19 = load ptr, ptr %2, align 8
  %20 = load atomic i32, ptr %19 monotonic, align 4
  switch i32 %20, label %_ZN9QtPrivate8RefCount5derefEv.exit.i [
    i32 0, label %_ZN9QtPrivate8RefCount5derefEv.exit.thread2.i
    i32 -1, label %_ZN7QStringD2Ev.exit
  ]

_ZN9QtPrivate8RefCount5derefEv.exit.i:            ; preds = %18
  %21 = atomicrmw sub ptr %19, i32 1 seq_cst, align 4
  %.not.i = icmp eq i32 %21, 1
  br i1 %.not.i, label %_ZN9QtPrivate8RefCount5derefEv.exit._ZN9QtPrivate8RefCount5derefEv.exit.thread2_crit_edge.i, label %_ZN7QStringD2Ev.exit

_ZN9QtPrivate8RefCount5derefEv.exit._ZN9QtPrivate8RefCount5derefEv.exit.thread2_crit_edge.i: ; preds = %_ZN9QtPrivate8RefCount5derefEv.exit.i
  %.pre.i = load ptr, ptr %2, align 8
  br label %_ZN9QtPrivate8RefCount5derefEv.exit.thread2.i

_ZN9QtPrivate8RefCount5derefEv.exit.thread2.i:    ; preds = %_ZN9QtPrivate8RefCount5derefEv.exit._ZN9QtPrivate8RefCount5derefEv.exit.thread2_crit_edge.i, %18
  %22 = phi ptr [ %.pre.i, %_ZN9QtPrivate8RefCount5derefEv.exit._ZN9QtPrivate8RefCount5derefEv.exit.thread2_crit_edge.i ], [ %19, %18 ]
  call void @_ZN10QArrayData10deallocateEPS_mm(ptr noundef %22, i64 noundef 2, i64 noundef 8) #22
  br label %_ZN7QStringD2Ev.exit

_ZN7QStringD2Ev.exit:                             ; preds = %18, %_ZN9QtPrivate8RefCount5derefEv.exit.i, %_ZN9QtPrivate8RefCount5derefEv.exit.thread2.i
  ret void

23:                                               ; preds = %_ZNSt6vectorIiSaIiEE5clearEv.exit
  %24 = landingpad { ptr, i32 }
          cleanup
  call void @_ZN7QStringD2Ev(ptr noundef nonnull align 8 dereferenceable(8) %2) #22
  resume { ptr, i32 } %24
}